; ModuleID = '15/1983.c'
source_filename = "15/1983.c"
target datalayout = "e-m:e-p270:32:32-p271:32:32-p272:64:64-i64:64-f80:128-n8:16:32:64-S128"
target triple = "x86_64-pc-linux-gnu"

@.str = private unnamed_addr constant [3 x i8] c"%d\00", align 1

; Function Attrs: noinline nounwind uwtable
define dso_local i32 @main() #0 {
  %1 = alloca i32, align 4
  %2 = alloca i32, align 4
  %3 = alloca i32, align 4
  %4 = alloca i32, align 4
  %5 = alloca [500 x [500 x i32]], align 16
  %6 = alloca i32, align 4
  %7 = alloca i32, align 4
  %8 = alloca i32, align 4
  %9 = alloca i32, align 4
  %10 = alloca i32, align 4
  %11 = alloca i32, align 4
  %12 = alloca i32, align 4
  store i32 0, i32* %1, align 4
  store i32 0, i32* %10, align 4
  store i32 0, i32* %11, align 4
  %13 = call i32 (i8*, ...) @__isoc99_scanf(i8* getelementptr inbounds ([3 x i8], [3 x i8]* @.str, i64 0, i64 0), i32* %2)
  store i32 0, i32* %3, align 4
  br label %14

14:                                               ; preds = %35, %0
  %15 = load i32, i32* %3, align 4
  %16 = load i32, i32* %2, align 4
  %17 = icmp slt i32 %15, %16
  br i1 %17, label %18, label %38

18:                                               ; preds = %14
  store i32 0, i32* %4, align 4
  br label %19

19:                                               ; preds = %31, %18
  %20 = load i32, i32* %4, align 4
  %21 = load i32, i32* %2, align 4
  %22 = icmp slt i32 %20, %21
  br i1 %22, label %23, label %34

23:                                               ; preds = %19
  %24 = load i32, i32* %3, align 4
  %25 = sext i32 %24 to i64
  %26 = getelementptr inbounds [500 x [500 x i32]], [500 x [500 x i32]]* %5, i64 0, i64 %25
  %27 = load i32, i32* %4, align 4
  %28 = sext i32 %27 to i64
  %29 = getelementptr inbounds [500 x i32], [500 x i32]* %26, i64 0, i64 %28
  %30 = call i32 (i8*, ...) @__isoc99_scanf(i8* getelementptr inbounds ([3 x i8], [3 x i8]* @.str, i64 0, i64 0), i32* %29)
  br label %31

31:                                               ; preds = %23
  %32 = load i32, i32* %4, align 4
  %33 = add nsw i32 %32, 1
  store i32 %33, i32* %4, align 4
  br label %19

34:                                               ; preds = %19
  br label %35

35:                                               ; preds = %34
  %36 = load i32, i32* %3, align 4
  %37 = add nsw i32 %36, 1
  store i32 %37, i32* %3, align 4
  br label %14

38:                                               ; preds = %14
  store i32 0, i32* %3, align 4
  br label %39

39:                                               ; preds = %69, %38
  %40 = load i32, i32* %3, align 4
  %41 = load i32, i32* %2, align 4
  %42 = icmp slt i32 %40, %41
  br i1 %42, label %43, label %72

43:                                               ; preds = %39
  store i32 0, i32* %4, align 4
  br label %44

44:                                               ; preds = %61, %43
  %45 = load i32, i32* %4, align 4
  %46 = load i32, i32* %2, align 4
  %47 = icmp slt i32 %45, %46
  br i1 %47, label %48, label %64

48:                                               ; preds = %44
  %49 = load i32, i32* %3, align 4
  %50 = sext i32 %49 to i64
  %51 = getelementptr inbounds [500 x [500 x i32]], [500 x [500 x i32]]* %5, i64 0, i64 %50
  %52 = load i32, i32* %4, align 4
  %53 = sext i32 %52 to i64
  %54 = getelementptr inbounds [500 x i32], [500 x i32]* %51, i64 0, i64 %53
  %55 = load i32, i32* %54, align 4
  %56 = icmp eq i32 %55, 0
  br i1 %56, label %57, label %60

57:                                               ; preds = %48
  %58 = load i32, i32* %3, align 4
  store i32 %58, i32* %6, align 4
  %59 = load i32, i32* %4, align 4
  store i32 %59, i32* %7, align 4
  store i32 1, i32* %10, align 4
  br label %64

60:                                               ; preds = %48
  br label %61

61:                                               ; preds = %60
  %62 = load i32, i32* %4, align 4
  %63 = add nsw i32 %62, 1
  store i32 %63, i32* %4, align 4
  br label %44

64:                                               ; preds = %57, %44
  %65 = load i32, i32* %10, align 4
  %66 = icmp eq i32 %65, 1
  br i1 %66, label %67, label %68

67:                                               ; preds = %64
  br label %72

68:                                               ; preds = %64
  br label %69

69:                                               ; preds = %68
  %70 = load i32, i32* %3, align 4
  %71 = add nsw i32 %70, 1
  store i32 %71, i32* %3, align 4
  br label %39

72:                                               ; preds = %67, %39
  %73 = load i32, i32* %2, align 4
  %74 = sub nsw i32 %73, 1
  store i32 %74, i32* %3, align 4
  br label %75

75:                                               ; preds = %105, %72
  %76 = load i32, i32* %3, align 4
  %77 = icmp sge i32 %76, 0
  br i1 %77, label %78, label %108

78:                                               ; preds = %75
  %79 = load i32, i32* %2, align 4
  %80 = sub nsw i32 %79, 1
  store i32 %80, i32* %4, align 4
  br label %81

81:                                               ; preds = %97, %78
  %82 = load i32, i32* %4, align 4
  %83 = icmp sge i32 %82, 0
  br i1 %83, label %84, label %100

84:                                               ; preds = %81
  %85 = load i32, i32* %3, align 4
  %86 = sext i32 %85 to i64
  %87 = getelementptr inbounds [500 x [500 x i32]], [500 x [500 x i32]]* %5, i64 0, i64 %86
  %88 = load i32, i32* %4, align 4
  %89 = sext i32 %88 to i64
  %90 = getelementptr inbounds [500 x i32], [500 x i32]* %87, i64 0, i64 %89
  %91 = load i32, i32* %90, align 4
  %92 = icmp eq i32 %91, 0
  br i1 %92, label %93, label %96

93:                                               ; preds = %84
  %94 = load i32, i32* %3, align 4
  store i32 %94, i32* %8, align 4
  %95 = load i32, i32* %4, align 4
  store i32 %95, i32* %9, align 4
  store i32 1, i32* %11, align 4
  br label %100

96:                                               ; preds = %84
  br label %97

97:                                               ; preds = %96
  %98 = load i32, i32* %4, align 4
  %99 = add nsw i32 %98, -1
  store i32 %99, i32* %4, align 4
  br label %81

100:                                              ; preds = %93, %81
  %101 = load i32, i32* %11, align 4
  %102 = icmp eq i32 %101, 1
  br i1 %102, label %103, label %104

103:                                              ; preds = %100
  br label %108

104:                                              ; preds = %100
  br label %105

105:                                              ; preds = %104
  %106 = load i32, i32* %3, align 4
  %107 = add nsw i32 %106, -1
  store i32 %107, i32* %3, align 4
  br label %75

108:                                              ; preds = %103, %75
  %109 = load i32, i32* %8, align 4
  %110 = load i32, i32* %6, align 4
  %111 = sub nsw i32 %109, %110
  %112 = sub nsw i32 %111, 1
  %113 = load i32, i32* %9, align 4
  %114 = load i32, i32* %7, align 4
  %115 = sub nsw i32 %113, %114
  %116 = sub nsw i32 %115, 1
  %117 = mul nsw i32 %112, %116
  store i32 %117, i32* %12, align 4
  %118 = load i32, i32* %12, align 4
  %119 = call i32 (i8*, ...) @printf(i8* getelementptr inbounds ([3 x i8], [3 x i8]* @.str, i64 0, i64 0), i32 %118)
  ret i32 0
}

declare dso_local i32 @__isoc99_scanf(i8*, ...) #1

declare dso_local i32 @printf(i8*, ...) #1


!llvm.module.flags = !{!0}
!llvm.ident = !{!1}

!0 = !{i32 1, !"wchar_size", i32 4}
!1 = !{!"clang version 10.0.0-4ubuntu1 "}
